target datalayout = "e-m:e-p270:32:32-p271:32:32-p272:64:64-i64:64-i128:128-f80:128-n8:16:32:64-S128"
target triple = "x86_64-pc-linux-gnu"

; Function Attrs: nounwind uwtable
define hidden i32 @_cmsReadMediaWhitePoint(ptr noundef %0, ptr noundef %1) #0 {
  %3 = alloca i32, align 4
  %4 = alloca ptr, align 8
  %5 = alloca ptr, align 8
  %6 = alloca ptr, align 8
  store ptr %0, ptr %4, align 8
  store ptr %1, ptr %5, align 8
  %7 = load ptr, ptr %5, align 8
  %8 = call ptr @cmsReadTag(ptr noundef %7, i32 noundef 2004119668)
  store ptr %8, ptr %6, align 8
  %9 = load ptr, ptr %6, align 8
  %10 = icmp eq ptr %9, null
  br i1 %10, label %11, label %14

11:                                               ; preds = %2
  %12 = load ptr, ptr %4, align 8
  %13 = call ptr @cmsD50_XYZ()
  call void @llvm.memcpy.p0.p0.i64(ptr align 8 %12, ptr align 8 %13, i64 24, i1 false)
  store i32 1, ptr %3, align 4
  br label %29

14:                                               ; preds = %2
  %15 = load ptr, ptr %5, align 8
  %16 = call i32 @cmsGetEncodedICCversion(ptr noundef %15)
  %17 = icmp ult i32 %16, 67108864
  br i1 %17, label %18, label %26

18:                                               ; preds = %14
  %19 = load ptr, ptr %5, align 8
  %20 = call i32 @cmsGetDeviceClass(ptr noundef %19)
  %21 = icmp eq i32 %20, 1835955314
  br i1 %21, label %22, label %25

22:                                               ; preds = %18
  %23 = load ptr, ptr %4, align 8
  %24 = call ptr @cmsD50_XYZ()
  call void @llvm.memcpy.p0.p0.i64(ptr align 8 %23, ptr align 8 %24, i64 24, i1 false)
  store i32 1, ptr %3, align 4
  br label %29

25:                                               ; preds = %18
  br label %26

26:                                               ; preds = %25, %14
  %27 = load ptr, ptr %4, align 8
  %28 = load ptr, ptr %6, align 8
  call void @llvm.memcpy.p0.p0.i64(ptr align 8 %27, ptr align 8 %28, i64 24, i1 false)
  store i32 1, ptr %3, align 4
  br label %29

29:                                               ; preds = %26, %22, %11
  %30 = load i32, ptr %3, align 4
  ret i32 %30
}