; Function Attrs: nounwind uwtable
define hidden noundef i32 @_cmsReadMediaWhitePoint(ptr nocapture noundef writeonly %0, ptr noundef %1) local_unnamed_addr #0 {
  %3 = tail call ptr @cmsReadTag(ptr noundef %1, i32 noundef 2004119668) #4
  %4 = icmp eq ptr %3, null
  br i1 %4, label %.sink.split, label %5

5:                                                ; preds = %2
  %6 = tail call i32 @cmsGetEncodedICCversion(ptr noundef %1) #4
  %7 = icmp ult i32 %6, 67108864
  br i1 %7, label %8, label %12

8:                                                ; preds = %5
  %9 = tail call i32 @cmsGetDeviceClass(ptr noundef %1) #4
  %10 = icmp eq i32 %9, 1835955314
  br i1 %10, label %.sink.split, label %12

.sink.split:                                      ; preds = %8, %2
  %11 = tail call ptr @cmsD50_XYZ() #4
  br label %12

12:                                               ; preds = %.sink.split, %5, %8
  %.sink = phi ptr [ %3, %8 ], [ %3, %5 ], [ %11, %.sink.split ]
  tail call void @llvm.memcpy.p0.p0.i64(ptr noundef nonnull align 8 dereferenceable(24) %0, ptr noundef nonnull align 8 dereferenceable(24) %.sink, i64 24, i1 false)
  ret i32 1
}